target datalayout = "e-m:e-p270:32:32-p271:32:32-p272:64:64-i64:64-i128:128-f80:128-n8:16:32:64-S128"
target triple = "x86_64-pc-linux-gnu"

%"class.cv::ccm::Operations" = type { ptr, %"class.std::vector" }
%"class.std::vector" = type { %"struct.std::_Vector_base" }
%"struct.std::_Vector_base" = type { %"struct.std::_Vector_base<cv::ccm::Operation, std::allocator<cv::ccm::Operation>>::_Vector_impl" }
%"struct.std::_Vector_base<cv::ccm::Operation, std::allocator<cv::ccm::Operation>>::_Vector_impl" = type { %"struct.std::_Vector_base<cv::ccm::Operation, std::allocator<cv::ccm::Operation>>::_Vector_impl_data" }
%"struct.std::_Vector_base<cv::ccm::Operation, std::allocator<cv::ccm::Operation>>::_Vector_impl_data" = type { ptr, ptr, ptr }
%"class.cv::ccm::ColorSpace" = type { ptr, %"class.cv::ccm::IO", %"class.std::__cxx11::basic_string", i8, %"class.cv::ccm::Operations", %"class.cv::ccm::Operations", ptr, ptr }
%"class.cv::ccm::IO" = type { ptr, %"class.std::__cxx11::basic_string", %"class.std::__cxx11::basic_string" }
%"class.std::__cxx11::basic_string" = type { %"struct.std::__cxx11::basic_string<char>::_Alloc_hider", i64, %union.anon }
%"struct.std::__cxx11::basic_string<char>::_Alloc_hider" = type { ptr }
%union.anon = type { i64, [8 x i8] }
%"struct.std::_Vector_base.5" = type { %"struct.std::_Vector_base<double, std::allocator<double>>::_Vector_impl" }
%"struct.std::_Vector_base<double, std::allocator<double>>::_Vector_impl" = type { %"struct.std::_Vector_base<double, std::allocator<double>>::_Vector_impl_data" }
%"struct.std::_Vector_base<double, std::allocator<double>>::_Vector_impl_data" = type { ptr, ptr, ptr }
%"class.std::initializer_list.9" = type { ptr, i64 }
%"class.cv::Vec.45" = type { %"class.cv::Matx.46" }
%"class.cv::Matx.46" = type { [3 x double] }
%class.anon.49 = type { i8 }

; Function Attrs: mustprogress nounwind uwtable
define linkonce_odr hidden noundef i64 @_ZNKSt16initializer_listIdE4sizeEv(ptr noundef nonnull align 8 dereferenceable(16) %0) #8 comdat align 2 {
  %2 = alloca ptr, align 8
  store ptr %0, ptr %2, align 8, !tbaa !578
  %3 = load ptr, ptr %2, align 8
  %4 = getelementptr inbounds nuw %"class.std::initializer_list.9", ptr %3, i32 0, i32 1
  %5 = load i64, ptr %4, align 8, !tbaa !70
  ret i64 %5
}

; Function Attrs: mustprogress nounwind uwtable
define linkonce_odr hidden noundef ptr @_ZNKSt16initializer_listIdE3endEv(ptr noundef nonnull align 8 dereferenceable(16) %0) #8 comdat align 2 {
  %2 = alloca ptr, align 8
  store ptr %0, ptr %2, align 8, !tbaa !578
  %3 = load ptr, ptr %2, align 8
  %4 = call noundef ptr @_ZNKSt16initializer_listIdE5beginEv(ptr noundef nonnull align 8 dereferenceable(16) %3) #3
  %5 = call noundef i64 @_ZNKSt16initializer_listIdE4sizeEv(ptr noundef nonnull align 8 dereferenceable(16) %3) #3
  %6 = getelementptr inbounds nuw double, ptr %4, i64 %5
  ret ptr %6
}

; Function Attrs: mustprogress nounwind uwtable
define linkonce_odr hidden noundef ptr @_ZNKSt16initializer_listIdE5beginEv(ptr noundef nonnull align 8 dereferenceable(16) %0) #8 comdat align 2 {
  %2 = alloca ptr, align 8
  store ptr %0, ptr %2, align 8, !tbaa !578
  %3 = load ptr, ptr %2, align 8
  %4 = getelementptr inbounds nuw %"class.std::initializer_list.9", ptr %3, i32 0, i32 0
  %5 = load ptr, ptr %4, align 8, !tbaa !67
  ret ptr %5
}

; Function Attrs: inlinehint mustprogress nounwind uwtable
define linkonce_odr hidden void @_ZN2cv4MatxIdLi3ELi1EEC2ESt16initializer_listIdE(ptr noundef nonnull align 8 dereferenceable(24) %0, ptr %1, i64 %2) unnamed_addr #5 comdat align 2 {
  %4 = alloca %"class.std::initializer_list.9", align 8
  %5 = alloca ptr, align 8
  %6 = alloca i32, align 4
  %7 = alloca ptr, align 8
  %8 = alloca ptr, align 8
  %9 = alloca ptr, align 8
  %10 = alloca ptr, align 8
  %11 = getelementptr inbounds nuw { ptr, i64 }, ptr %4, i32 0, i32 0
  store ptr %1, ptr %11, align 8
  %12 = getelementptr inbounds nuw { ptr, i64 }, ptr %4, i32 0, i32 1
  store i64 %2, ptr %12, align 8
  store ptr %0, ptr %5, align 8, !tbaa !751
  %13 = load ptr, ptr %5, align 8
  call void @llvm.lifetime.start.p0(i64 4, ptr %6) #3
  store i32 0, ptr %6, align 4, !tbaa !122
  call void @llvm.lifetime.start.p0(i64 8, ptr %7) #3
  store ptr %4, ptr %7, align 8, !tbaa !578
  call void @llvm.lifetime.start.p0(i64 8, ptr %8) #3
  %14 = load ptr, ptr %7, align 8, !tbaa !578
  %15 = call noundef ptr @_ZNKSt16initializer_listIdE5beginEv(ptr noundef nonnull align 8 dereferenceable(16) %14) #3
  store ptr %15, ptr %8, align 8, !tbaa !150
  call void @llvm.lifetime.start.p0(i64 8, ptr %9) #3
  %16 = load ptr, ptr %7, align 8, !tbaa !578
  %17 = call noundef ptr @_ZNKSt16initializer_listIdE3endEv(ptr noundef nonnull align 8 dereferenceable(16) %16) #3
  store ptr %17, ptr %9, align 8, !tbaa !150
  br label %18

18:                                               ; preds = %32, %3
  %19 = load ptr, ptr %8, align 8, !tbaa !150
  %20 = load ptr, ptr %9, align 8, !tbaa !150
  %21 = icmp ne ptr %19, %20
  br i1 %21, label %23, label %22

22:                                               ; preds = %18
  call void @llvm.lifetime.end.p0(i64 8, ptr %9) #3
  call void @llvm.lifetime.end.p0(i64 8, ptr %8) #3
  call void @llvm.lifetime.end.p0(i64 8, ptr %7) #3
  br label %35

23:                                               ; preds = %18
  call void @llvm.lifetime.start.p0(i64 8, ptr %10) #3
  %24 = load ptr, ptr %8, align 8, !tbaa !150
  store ptr %24, ptr %10, align 8, !tbaa !150
  %25 = load ptr, ptr %10, align 8, !tbaa !150
  %26 = load double, ptr %25, align 8, !tbaa !65
  %27 = getelementptr inbounds nuw %"class.cv::Matx.46", ptr %13, i32 0, i32 0
  %28 = load i32, ptr %6, align 4, !tbaa !122
  %29 = add nsw i32 %28, 1
  store i32 %29, ptr %6, align 4, !tbaa !122
  %30 = sext i32 %28 to i64
  %31 = getelementptr inbounds [3 x double], ptr %27, i64 0, i64 %30
  store double %26, ptr %31, align 8, !tbaa !65
  call void @llvm.lifetime.end.p0(i64 8, ptr %10) #3
  br label %32

32:                                               ; preds = %23
  %33 = load ptr, ptr %8, align 8, !tbaa !150
  %34 = getelementptr inbounds nuw double, ptr %33, i32 1
  store ptr %34, ptr %8, align 8, !tbaa !150
  br label %18

35:                                               ; preds = %22
  call void @llvm.lifetime.end.p0(i64 4, ptr %6) #3
  ret void
}

; Function Attrs: inlinehint mustprogress uwtable
define linkonce_odr hidden void @_ZN2cv3VecIdLi3EEC2ESt16initializer_listIdE(ptr noundef nonnull align 8 dereferenceable(24) %0, ptr %1, i64 %2) unnamed_addr #6 comdat align 2 {
  %4 = alloca %"class.std::initializer_list.9", align 8
  %5 = alloca ptr, align 8
  %6 = alloca %"class.std::initializer_list.9", align 8
  %7 = getelementptr inbounds nuw { ptr, i64 }, ptr %4, i32 0, i32 0
  store ptr %1, ptr %7, align 8
  %8 = getelementptr inbounds nuw { ptr, i64 }, ptr %4, i32 0, i32 1
  store i64 %2, ptr %8, align 8
  store ptr %0, ptr %5, align 8, !tbaa !243
  %9 = load ptr, ptr %5, align 8
  call void @llvm.memcpy.p0.p0.i64(ptr align 8 %6, ptr align 8 %4, i64 16, i1 false), !tbaa.struct !245
  %10 = getelementptr inbounds nuw { ptr, i64 }, ptr %6, i32 0, i32 0
  %11 = load ptr, ptr %10, align 8
  %12 = getelementptr inbounds nuw { ptr, i64 }, ptr %6, i32 0, i32 1
  %13 = load i64, ptr %12, align 8
  call void @_ZN2cv4MatxIdLi3ELi1EEC2ESt16initializer_listIdE(ptr noundef nonnull align 8 dereferenceable(24) %9, ptr %11, i64 %13)
  ret void
}

; Function Attrs: inlinehint mustprogress nounwind uwtable
define internal noundef double @"_ZZN2cv3ccm3Lab5tolabERNS_3VecIdLi3EEEENK3$_0clEd"(ptr noundef nonnull align 1 dereferenceable(1) %0, double noundef %1) #5 align 2 {
  %3 = alloca ptr, align 8
  %4 = alloca double, align 8
  store ptr %0, ptr %3, align 8, !tbaa !42
  store double %1, ptr %4, align 8, !tbaa !65
  %5 = load double, ptr %4, align 8, !tbaa !65
  %6 = fcmp ogt double %5, 0x3FCA7B9611A7B961
  br i1 %6, label %7, label %10

7:                                                ; preds = %2
  %8 = load double, ptr %4, align 8, !tbaa !65
  %9 = call double @pow(double noundef %8, double noundef 3.000000e+00) #3, !tbaa !122
  br label %14

10:                                               ; preds = %2
  %11 = load double, ptr %4, align 8, !tbaa !65
  %12 = fsub double %11, 0x3FC1A7B9611A7B96
  %13 = fdiv double %12, 0x401F25ED097B425E
  br label %14

14:                                               ; preds = %10, %7
  %15 = phi double [ %9, %7 ], [ %13, %10 ]
  ret double %15
}

; Function Attrs: mustprogress nounwind uwtable
define linkonce_odr hidden noundef nonnull align 8 dereferenceable(8) ptr @_ZNKSt6vectorIdSaIdEEixEm(ptr noundef nonnull align 8 dereferenceable(24) %0, i64 noundef %1) #8 comdat align 2 {
  %3 = alloca ptr, align 8
  %4 = alloca i64, align 8
  store ptr %0, ptr %3, align 8, !tbaa !83
  store i64 %1, ptr %4, align 8, !tbaa !59
  %5 = load ptr, ptr %3, align 8
  %6 = getelementptr inbounds nuw %"struct.std::_Vector_base.5", ptr %5, i32 0, i32 0
  %7 = getelementptr inbounds nuw %"struct.std::_Vector_base<double, std::allocator<double>>::_Vector_impl_data", ptr %6, i32 0, i32 0
  %8 = load ptr, ptr %7, align 8, !tbaa !96
  %9 = load i64, ptr %4, align 8, !tbaa !59
  %10 = getelementptr inbounds nuw double, ptr %8, i64 %9
  ret ptr %10
}

; Function Attrs: inlinehint mustprogress nounwind uwtable
define linkonce_odr hidden noundef nonnull align 8 dereferenceable(8) ptr @_ZN2cv3VecIdLi3EEixEi(ptr noundef nonnull align 8 dereferenceable(24) %0, i32 noundef %1) #5 comdat align 2 {
  %3 = alloca ptr, align 8
  %4 = alloca i32, align 4
  store ptr %0, ptr %3, align 8, !tbaa !243
  store i32 %1, ptr %4, align 4, !tbaa !122
  %5 = load ptr, ptr %3, align 8
  %6 = getelementptr inbounds nuw %"class.cv::Matx.46", ptr %5, i32 0, i32 0
  %7 = load i32, ptr %4, align 4, !tbaa !122
  %8 = sext i32 %7 to i64
  %9 = getelementptr inbounds [3 x double], ptr %6, i64 0, i64 %8
  ret ptr %9
}

; Function Attrs: mustprogress uwtable
define hidden void @_ZN2cv3ccm3Lab5tolabERNS_3VecIdLi3EEE(ptr dead_on_unwind noalias writable sret(%"class.cv::Vec.45") align 8 %0, ptr noundef nonnull align 8 dereferenceable(200) %1, ptr noundef nonnull align 8 dereferenceable(24) %2) #4 align 2 {
  %4 = alloca ptr, align 8
  %5 = alloca ptr, align 8
  %6 = alloca ptr, align 8
  %7 = alloca %class.anon.49, align 1
  %8 = alloca double, align 8
  %9 = alloca double, align 8
  %10 = alloca double, align 8
  %11 = alloca ptr, align 8
  %12 = alloca %"class.std::initializer_list.9", align 8
  %13 = alloca [3 x double], align 8
  store ptr %0, ptr %4, align 8
  store ptr %1, ptr %5, align 8, !tbaa !232
  store ptr %2, ptr %6, align 8, !tbaa !243
  %14 = load ptr, ptr %5, align 8
  call void @llvm.lifetime.start.p0(i64 1, ptr %7) #3
  call void @llvm.lifetime.start.p0(i64 8, ptr %8) #3
  %15 = load ptr, ptr %6, align 8, !tbaa !243
  %16 = call noundef nonnull align 8 dereferenceable(8) ptr @_ZN2cv3VecIdLi3EEixEi(ptr noundef nonnull align 8 dereferenceable(24) %15, i32 noundef 0)
  %17 = load double, ptr %16, align 8, !tbaa !65
  %18 = fadd double %17, 1.600000e+01
  %19 = fdiv double %18, 1.160000e+02
  store double %19, ptr %8, align 8, !tbaa !65
  call void @llvm.lifetime.start.p0(i64 8, ptr %9) #3
  %20 = load ptr, ptr %6, align 8, !tbaa !243
  %21 = call noundef nonnull align 8 dereferenceable(8) ptr @_ZN2cv3VecIdLi3EEixEi(ptr noundef nonnull align 8 dereferenceable(24) %20, i32 noundef 1)
  %22 = load double, ptr %21, align 8, !tbaa !65
  %23 = fdiv double %22, 5.000000e+02
  store double %23, ptr %9, align 8, !tbaa !65
  call void @llvm.lifetime.start.p0(i64 8, ptr %10) #3
  %24 = load ptr, ptr %6, align 8, !tbaa !243
  %25 = call noundef nonnull align 8 dereferenceable(8) ptr @_ZN2cv3VecIdLi3EEixEi(ptr noundef nonnull align 8 dereferenceable(24) %24, i32 noundef 2)
  %26 = load double, ptr %25, align 8, !tbaa !65
  %27 = fdiv double %26, 2.000000e+02
  store double %27, ptr %10, align 8, !tbaa !65
  call void @llvm.lifetime.start.p0(i64 8, ptr %11) #3
  %28 = getelementptr inbounds nuw %"class.cv::ccm::ColorSpace", ptr %14, i32 0, i32 1
  %29 = call noundef nonnull align 8 dereferenceable(24) ptr @_ZN2cv3ccmL14getIlluminantsERKNS0_2IOE(ptr noundef nonnull align 8 dereferenceable(72) %28)
  store ptr %29, ptr %11, align 8, !tbaa !83
  call void @llvm.lifetime.start.p0(i64 24, ptr %13) #3
  %30 = load ptr, ptr %11, align 8, !tbaa !83
  %31 = call noundef nonnull align 8 dereferenceable(8) ptr @_ZNKSt6vectorIdSaIdEEixEm(ptr noundef nonnull align 8 dereferenceable(24) %30, i64 noundef 0) #3
  %32 = load double, ptr %31, align 8, !tbaa !65
  %33 = load double, ptr %8, align 8, !tbaa !65
  %34 = load double, ptr %9, align 8, !tbaa !65
  %35 = fadd double %33, %34
  %36 = call noundef double @"_ZZN2cv3ccm3Lab5tolabERNS_3VecIdLi3EEEENK3$_0clEd"(ptr noundef nonnull align 1 dereferenceable(1) %7, double noundef %35)
  %37 = fmul double %32, %36
  store double %37, ptr %13, align 8, !tbaa !65
  %38 = getelementptr inbounds double, ptr %13, i64 1
  %39 = load ptr, ptr %11, align 8, !tbaa !83
  %40 = call noundef nonnull align 8 dereferenceable(8) ptr @_ZNKSt6vectorIdSaIdEEixEm(ptr noundef nonnull align 8 dereferenceable(24) %39, i64 noundef 1) #3
  %41 = load double, ptr %40, align 8, !tbaa !65
  %42 = load double, ptr %8, align 8, !tbaa !65
  %43 = call noundef double @"_ZZN2cv3ccm3Lab5tolabERNS_3VecIdLi3EEEENK3$_0clEd"(ptr noundef nonnull align 1 dereferenceable(1) %7, double noundef %42)
  %44 = fmul double %41, %43
  store double %44, ptr %38, align 8, !tbaa !65
  %45 = getelementptr inbounds double, ptr %13, i64 2
  %46 = load ptr, ptr %11, align 8, !tbaa !83
  %47 = call noundef nonnull align 8 dereferenceable(8) ptr @_ZNKSt6vectorIdSaIdEEixEm(ptr noundef nonnull align 8 dereferenceable(24) %46, i64 noundef 2) #3
  %48 = load double, ptr %47, align 8, !tbaa !65
  %49 = load double, ptr %8, align 8, !tbaa !65
  %50 = load double, ptr %10, align 8, !tbaa !65
  %51 = fsub double %49, %50
  %52 = call noundef double @"_ZZN2cv3ccm3Lab5tolabERNS_3VecIdLi3EEEENK3$_0clEd"(ptr noundef nonnull align 1 dereferenceable(1) %7, double noundef %51)
  %53 = fmul double %48, %52
  store double %53, ptr %45, align 8, !tbaa !65
  %54 = getelementptr inbounds nuw %"class.std::initializer_list.9", ptr %12, i32 0, i32 0
  store ptr %13, ptr %54, align 8, !tbaa !67
  %55 = getelementptr inbounds nuw %"class.std::initializer_list.9", ptr %12, i32 0, i32 1
  store i64 3, ptr %55, align 8, !tbaa !70
  %56 = getelementptr inbounds nuw { ptr, i64 }, ptr %12, i32 0, i32 0
  %57 = load ptr, ptr %56, align 8
  %58 = getelementptr inbounds nuw { ptr, i64 }, ptr %12, i32 0, i32 1
  %59 = load i64, ptr %58, align 8
  call void @_ZN2cv3VecIdLi3EEC2ESt16initializer_listIdE(ptr noundef nonnull align 8 dereferenceable(24) %0, ptr %57, i64 %59)
  call void @llvm.lifetime.end.p0(i64 24, ptr %13) #3
  call void @llvm.lifetime.end.p0(i64 8, ptr %11) #3
  call void @llvm.lifetime.end.p0(i64 8, ptr %10) #3
  call void @llvm.lifetime.end.p0(i64 8, ptr %9) #3
  call void @llvm.lifetime.end.p0(i64 8, ptr %8) #3
  call void @llvm.lifetime.end.p0(i64 1, ptr %7) #3
  ret void
}