; Function Attrs: mustprogress uwtable
define hidden void @_ZN2cv3ccm3Lab5tolabERNS_3VecIdLi3EEE(ptr dead_on_unwind noalias writable writeonly sret(%"class.cv::Vec.45") align 8 captures(none) initializes((0, 24)) %0, ptr noundef nonnull align 8 dereferenceable(200) %1, ptr noundef nonnull readonly align 8 captures(none) dereferenceable(24) %2) local_unnamed_addr #3 align 2 {
  %4 = load double, ptr %2, align 8, !tbaa !84
  %5 = fadd double %4, 1.600000e+01
  %6 = fdiv double %5, 1.160000e+02
  %7 = getelementptr inbounds nuw i8, ptr %2, i64 8
  %8 = load double, ptr %7, align 8, !tbaa !84
  %9 = fdiv double %8, 5.000000e+02
  %10 = getelementptr inbounds nuw i8, ptr %2, i64 16
  %11 = load double, ptr %10, align 8, !tbaa !84
  %12 = fdiv double %11, 2.000000e+02
  %13 = getelementptr inbounds nuw i8, ptr %1, i64 8
  %14 = tail call fastcc noundef nonnull align 8 dereferenceable(24) ptr @_ZN2cv3ccmL14getIlluminantsERKNS0_2IOE(ptr noundef nonnull align 8 dereferenceable(72) %13)
  %15 = load ptr, ptr %14, align 8, !tbaa !54
  %16 = load double, ptr %15, align 8, !tbaa !84
  %17 = fadd double %6, %9
  %18 = fcmp ogt double %17, 0x3FCA7B9611A7B961
  br i1 %18, label %19, label %21

19:                                               ; preds = %3
  %20 = tail call double @pow(double noundef %17, double noundef 3.000000e+00) #35, !tbaa !95
  br label %"_ZZN2cv3ccm3Lab5tolabERNS_3VecIdLi3EEEENK3$_0clEd.exit"

21:                                               ; preds = %3
  %22 = fadd double %17, 0xBFC1A7B9611A7B96
  %23 = fdiv double %22, 0x401F25ED097B425E
  br label %"_ZZN2cv3ccm3Lab5tolabERNS_3VecIdLi3EEEENK3$_0clEd.exit"

"_ZZN2cv3ccm3Lab5tolabERNS_3VecIdLi3EEEENK3$_0clEd.exit": ; preds = %19, %21
  %24 = phi double [ %20, %19 ], [ %23, %21 ]
  %25 = getelementptr inbounds nuw i8, ptr %15, i64 8
  %26 = load double, ptr %25, align 8, !tbaa !84
  %27 = fcmp ogt double %6, 0x3FCA7B9611A7B961
  br i1 %27, label %28, label %30

28:                                               ; preds = %"_ZZN2cv3ccm3Lab5tolabERNS_3VecIdLi3EEEENK3$_0clEd.exit"
  %29 = tail call double @pow(double noundef %6, double noundef 3.000000e+00) #35, !tbaa !95
  br label %"_ZZN2cv3ccm3Lab5tolabERNS_3VecIdLi3EEEENK3$_0clEd.exit12"

30:                                               ; preds = %"_ZZN2cv3ccm3Lab5tolabERNS_3VecIdLi3EEEENK3$_0clEd.exit"
  %31 = fadd double %6, 0xBFC1A7B9611A7B96
  %32 = fdiv double %31, 0x401F25ED097B425E
  br label %"_ZZN2cv3ccm3Lab5tolabERNS_3VecIdLi3EEEENK3$_0clEd.exit12"

"_ZZN2cv3ccm3Lab5tolabERNS_3VecIdLi3EEEENK3$_0clEd.exit12": ; preds = %28, %30
  %33 = phi double [ %29, %28 ], [ %32, %30 ]
  %34 = getelementptr inbounds nuw i8, ptr %15, i64 16
  %35 = load double, ptr %34, align 8, !tbaa !84
  %36 = fsub double %6, %12
  %37 = fcmp ogt double %36, 0x3FCA7B9611A7B961
  br i1 %37, label %38, label %40

38:                                               ; preds = %"_ZZN2cv3ccm3Lab5tolabERNS_3VecIdLi3EEEENK3$_0clEd.exit12"
  %39 = tail call double @pow(double noundef %36, double noundef 3.000000e+00) #35, !tbaa !95
  br label %"_ZZN2cv3ccm3Lab5tolabERNS_3VecIdLi3EEEENK3$_0clEd.exit13"

40:                                               ; preds = %"_ZZN2cv3ccm3Lab5tolabERNS_3VecIdLi3EEEENK3$_0clEd.exit12"
  %41 = fadd double %36, 0xBFC1A7B9611A7B96
  %42 = fdiv double %41, 0x401F25ED097B425E
  br label %"_ZZN2cv3ccm3Lab5tolabERNS_3VecIdLi3EEEENK3$_0clEd.exit13"

"_ZZN2cv3ccm3Lab5tolabERNS_3VecIdLi3EEEENK3$_0clEd.exit13": ; preds = %38, %40
  %43 = phi double [ %39, %38 ], [ %42, %40 ]
  %44 = fmul double %26, %33
  %45 = fmul double %16, %24
  %46 = fmul double %35, %43
  store double %45, ptr %0, align 8, !tbaa !84
  %.sroa.4.0..sroa_idx = getelementptr inbounds nuw i8, ptr %0, i64 8
  store double %44, ptr %.sroa.4.0..sroa_idx, align 8, !tbaa !84
  %.sroa.5.0..sroa_idx = getelementptr inbounds nuw i8, ptr %0, i64 16
  store double %46, ptr %.sroa.5.0..sroa_idx, align 8, !tbaa !84
  ret void
}